target datalayout = "e-m:e-p270:32:32-p271:32:32-p272:64:64-i64:64-i128:128-f80:128-n8:16:32:64-S128"
target triple = "x86_64-pc-linux-gnu"

; Function Attrs: mustprogress nounwind uwtable
define noundef i32 @_Z8wcsicompPKwS0_(ptr noundef %0, ptr noundef %1) #1 {
  %3 = alloca i32, align 4
  %4 = alloca ptr, align 8
  %5 = alloca ptr, align 8
  %6 = alloca i32, align 4
  %7 = alloca i32, align 4
  store ptr %0, ptr %4, align 8
  store ptr %1, ptr %5, align 8
  br label %8

8:                                                ; preds = %28, %2
  %9 = load ptr, ptr %4, align 8
  %10 = load i32, ptr %9, align 4
  %11 = call i32 @towupper(i32 noundef %10) #6
  store i32 %11, ptr %6, align 4
  %12 = load ptr, ptr %5, align 8
  %13 = load i32, ptr %12, align 4
  %14 = call i32 @towupper(i32 noundef %13) #6
  store i32 %14, ptr %7, align 4
  %15 = load i32, ptr %6, align 4
  %16 = load i32, ptr %7, align 4
  %17 = icmp ne i32 %15, %16
  br i1 %17, label %18, label %23

18:                                               ; preds = %8
  %19 = load i32, ptr %6, align 4
  %20 = load i32, ptr %7, align 4
  %21 = icmp slt i32 %19, %20
  %22 = select i1 %21, i32 -1, i32 1
  store i32 %22, ptr %3, align 4
  br label %34

23:                                               ; preds = %8
  %24 = load ptr, ptr %4, align 8
  %25 = load i32, ptr %24, align 4
  %26 = icmp eq i32 %25, 0
  br i1 %26, label %27, label %28

27:                                               ; preds = %23
  br label %33

28:                                               ; preds = %23
  %29 = load ptr, ptr %4, align 8
  %30 = getelementptr inbounds i32, ptr %29, i32 1
  store ptr %30, ptr %4, align 8
  %31 = load ptr, ptr %5, align 8
  %32 = getelementptr inbounds i32, ptr %31, i32 1
  store ptr %32, ptr %5, align 8
  br label %8, !llvm.loop !15

33:                                               ; preds = %27
  store i32 0, ptr %3, align 4
  br label %34

34:                                               ; preds = %33, %18
  %35 = load i32, ptr %3, align 4
  ret i32 %35
}