; Function Attrs: mustprogress nounwind uwtable
define noundef range(i32 -1, 2) i32 @_Z8wcsicompPKwS0_(ptr noundef readonly captures(none) %0, ptr noundef readonly captures(none) %1) local_unnamed_addr #0 {
  %3 = load i32, ptr %0, align 4
  %4 = tail call i32 @towupper(i32 noundef %3) #12
  %5 = load i32, ptr %1, align 4
  %6 = tail call i32 @towupper(i32 noundef %5) #12
  %.not16 = icmp eq i32 %4, %6
  br i1 %.not16, label %.lr.ph, label %._crit_edge

._crit_edge:                                      ; preds = %11, %2
  %.lcssa14 = phi i32 [ %4, %2 ], [ %15, %11 ]
  %.lcssa = phi i32 [ %6, %2 ], [ %17, %11 ]
  %7 = icmp slt i32 %.lcssa14, %.lcssa
  %8 = select i1 %7, i32 -1, i32 1
  br label %.loopexit

.lr.ph:                                           ; preds = %2, %11
  %.0918 = phi ptr [ %12, %11 ], [ %0, %2 ]
  %.01017 = phi ptr [ %13, %11 ], [ %1, %2 ]
  %9 = load i32, ptr %.0918, align 4
  %10 = icmp eq i32 %9, 0
  br i1 %10, label %.loopexit, label %11

11:                                               ; preds = %.lr.ph
  %12 = getelementptr inbounds nuw i8, ptr %.0918, i64 4
  %13 = getelementptr inbounds nuw i8, ptr %.01017, i64 4
  %14 = load i32, ptr %12, align 4
  %15 = tail call i32 @towupper(i32 noundef %14) #12
  %16 = load i32, ptr %13, align 4
  %17 = tail call i32 @towupper(i32 noundef %16) #12
  %.not = icmp eq i32 %15, %17
  br i1 %.not, label %.lr.ph, label %._crit_edge, !llvm.loop !15

.loopexit:                                        ; preds = %.lr.ph, %._crit_edge
  %.0 = phi i32 [ %8, %._crit_edge ], [ 0, %.lr.ph ]
  ret i32 %.0
}